ccopy_reg
_reconstructor
p0
(cFWCore.ParameterSet.Config
Process
p1
c__builtin__
object
p2
Ntp3
Rp4
(dp5
S'MessageLogger'
p6
g0
(cFWCore.ParameterSet.Modules
Service
p7
g2
Ntp8
Rp9
(dp10
S'_isFrozen'
p11
I00
sS'suppressInfo'
p12
g0
(cFWCore.ParameterSet.Types
vstring
p13
c__builtin__
list
p14
(lp15
tp16
Rp17
(dp18
g11
I00
sS'_ParameterTypeBase__isTracked'
p19
I00
sS'_isModified'
p20
I00
sS'_nPerLine'
p21
I1
sbsS'suppressDebug'
p22
g0
(g13
g14
(lp23
tp24
Rp25
(dp26
g11
I00
sg19
I00
sg20
I00
sg21
I1
sbsS'cout'
p27
g0
(cFWCore.ParameterSet.Types
PSet
p28
g2
Ntp29
Rp30
(dp31
g11
I00
sg19
I00
sS'placeholder'
p32
g0
(cFWCore.ParameterSet.Types
bool
p33
g2
Ntp34
Rp35
(dp36
g11
I00
sg19
I00
sS'_value'
p37
I01
sg20
I00
sbsg20
I00
sS'_Parameterizable__parameterNames'
p38
(lp39
g32
asbsS'_lineNumber'
p40
I10
sS'debugModules'
p41
g0
(g13
g14
(lp42
tp43
Rp44
(dp45
g11
I00
sg19
I00
sg20
I00
sg21
I1
sbsS'_TypedParameterizable__type'
p46
g6
sS'fwkJobReports'
p47
g0
(g13
g14
(lp48
S'FrameworkJobReport'
p49
atp50
Rp51
(dp52
g11
I00
sg19
I00
sg20
I00
sg21
I1
sbsg38
(lp53
g12
aS'debugs'
p54
ag22
ag27
aS'cerr_stats'
p55
aS'warnings'
p56
aS'default'
p57
aS'statistics'
p58
aS'cerr'
p59
ag49
aS'suppressWarning'
p60
aS'errors'
p61
aS'destinations'
p62
ag41
aS'infos'
p63
aS'categories'
p64
ag47
asg58
g0
(g13
g14
(lp65
g55
atp66
Rp67
(dp68
g11
I00
sg19
I00
sg20
I00
sg21
I1
sbsS'_filename'
p69
S'/cvmfs/cms.cern.ch/slc5_amd64_gcc462/cms/cmssw/CMSSW_5_3_5/python/FWCore/ParameterSet/Modules.py'
p70
sg62
g0
(g13
g14
(lp71
g56
ag61
ag63
ag54
ag27
ag59
atp72
Rp73
(dp74
g11
I00
sg19
I00
sg20
I00
sg21
I1
sbsg54
g0
(g28
g2
Ntp75
Rp76
(dp77
g11
I00
sg19
I00
sg32
g0
(g33
g2
Ntp78
Rp79
(dp80
g11
I00
sg19
I00
sg37
I01
sg20
I00
sbsg20
I00
sg38
(lp81
g32
asbsg56
g0
(g28
g2
Ntp82
Rp83
(dp84
g11
I00
sg19
I00
sg32
g0
(g33
g2
Ntp85
Rp86
(dp87
g11
I00
sg19
I00
sg37
I01
sg20
I00
sbsg20
I00
sg38
(lp88
g32
asbsg61
g0
(g28
g2
Ntp89
Rp90
(dp91
g11
I00
sg19
I00
sg32
g0
(g33
g2
Ntp92
Rp93
(dp94
g11
I00
sg19
I00
sg37
I01
sg20
I00
sbsg20
I00
sg38
(lp95
g32
asbsg49
g0
(g28
g2
Ntp96
Rp97
(dp98
g11
I00
sg19
I00
sg20
I00
sg57
g0
(g28
g2
Ntp99
Rp100
(dp101
g11
I00
sg19
I00
sS'limit'
p102
g0
(cFWCore.ParameterSet.Types
int32
p103
g2
Ntp104
Rp105
(dp106
g11
I00
sg19
I00
sg37
I0
sg20
I00
sbsg20
I00
sg38
(lp107
g102
asbsS'FwkJob'
p108
g0
(g28
g2
Ntp109
Rp110
(dp111
g11
I00
sg19
I00
sg20
I00
sg102
g0
(g103
g2
Ntp112
Rp113
(dp114
g11
I00
sg19
I00
sg37
I10000000
sg20
I00
sbsg38
(lp115
S'optionalPSet'
p116
ag102
asg116
g0
(g33
g2
Ntp117
Rp118
(dp119
g11
I00
sg19
I00
sg37
I01
sg20
I00
sbsbsg38
(lp120
g57
ag116
ag108
asg116
g0
(g33
g2
Ntp121
Rp122
(dp123
g11
I00
sg19
I00
sg37
I01
sg20
I00
sbsbsg60
g0
(g13
g14
(lp124
tp125
Rp126
(dp127
g11
I00
sg19
I00
sg20
I00
sg21
I1
sbsg63
g0
(g28
g2
Ntp128
Rp129
(dp130
g11
I00
sg19
I00
sg20
I00
sS'Root_NoDictionary'
p131
g0
(g28
g2
Ntp132
Rp133
(dp134
g11
I00
sg19
I00
sg20
I00
sg102
g0
(g103
g2
Ntp135
Rp136
(dp137
g11
I00
sg19
I00
sg37
I0
sg20
I00
sbsg38
(lp138
g116
ag102
asg116
g0
(g33
g2
Ntp139
Rp140
(dp141
g11
I00
sg19
I00
sg37
I01
sg20
I00
sbsbsg38
(lp142
g116
ag131
ag32
asg116
g0
(g33
g2
Ntp143
Rp144
(dp145
g11
I00
sg19
I00
sg37
I01
sg20
I00
sbsg32
g0
(g33
g2
Ntp146
Rp147
(dp148
g11
I00
sg19
I00
sg37
I01
sg20
I00
sbsbsg64
g0
(g13
g14
(lp149
g108
aS'FwkReport'
p150
aS'FwkSummary'
p151
ag131
atp152
Rp153
(dp154
g11
I00
sg19
I00
sg20
I00
sg21
I1
sbsg20
I00
sg55
g0
(g28
g2
Ntp155
Rp156
(dp157
g11
I00
sg19
I00
sg20
I00
sg116
g0
(g33
g2
Ntp158
Rp159
(dp160
g11
I00
sg19
I00
sg37
I01
sg20
I00
sbsg38
(lp161
S'threshold'
p162
aS'output'
p163
ag116
asg162
g0
(cFWCore.ParameterSet.Types
string
p164
g2
Ntp165
Rp166
(dp167
g11
I00
sg19
I00
sg37
S'WARNING'
p168
sg20
I00
sbsg163
g0
(g164
g2
Ntp169
Rp170
(dp171
g11
I00
sg19
I00
sg37
g59
sg20
I00
sbsbsg57
g0
(g28
g2
Ntp172
Rp173
(dp174
g11
I00
sg19
I00
sg20
I00
sg38
(lp175
sbsg59
g0
(g28
g2
Ntp176
Rp177
(dp178
g11
I00
sg19
I00
sS'noTimeStamps'
p179
g0
(g33
g2
Ntp180
Rp181
(dp182
g11
I00
sg19
I00
sg37
I00
sg20
I00
sbsg150
g0
(g28
g2
Ntp183
Rp184
(dp185
g11
I00
sg19
I00
sg20
I01
sS'reportEvery'
p186
g0
(g103
g2
Ntp187
Rp188
(dp189
g11
I00
sg19
I00
sg37
I1000
sg20
I01
sbsg102
g0
(g103
g2
Ntp190
Rp191
(dp192
g11
I00
sg19
I00
sg37
I10000000
sg20
I00
sbsg38
(lp193
g186
ag116
ag102
asg116
g0
(g33
g2
Ntp194
Rp195
(dp196
g11
I00
sg19
I00
sg37
I01
sg20
I00
sbsbsg20
I00
sg57
g0
(g28
g2
Ntp197
Rp198
(dp199
g11
I00
sg19
I00
sg102
g0
(g103
g2
Ntp200
Rp201
(dp202
g11
I00
sg19
I00
sg37
I10000000
sg20
I00
sbsg20
I00
sg38
(lp203
g102
asbsg131
g0
(g28
g2
Ntp204
Rp205
(dp206
g11
I00
sg19
I00
sg20
I00
sg102
g0
(g103
g2
Ntp207
Rp208
(dp209
g11
I00
sg19
I00
sg37
I0
sg20
I00
sbsg38
(lp210
g116
ag102
asg116
g0
(g33
g2
Ntp211
Rp212
(dp213
g11
I00
sg19
I00
sg37
I01
sg20
I00
sbsbsS'INFO'
p214
g0
(g28
g2
Ntp215
Rp216
(dp217
g11
I00
sg19
I00
sg102
g0
(g103
g2
Ntp218
Rp219
(dp220
g11
I00
sg19
I00
sg37
I0
sg20
I00
sbsg20
I00
sg38
(lp221
g102
asbsg116
g0
(g33
g2
Ntp222
Rp223
(dp224
g11
I00
sg19
I00
sg37
I01
sg20
I00
sbsg108
g0
(g28
g2
Ntp225
Rp226
(dp227
g11
I00
sg19
I00
sg20
I00
sg102
g0
(g103
g2
Ntp228
Rp229
(dp230
g11
I00
sg19
I00
sg37
I0
sg20
I00
sbsg38
(lp231
g116
ag102
asg116
g0
(g33
g2
Ntp232
Rp233
(dp234
g11
I00
sg19
I00
sg37
I01
sg20
I00
sbsbsg151
g0
(g28
g2
Ntp235
Rp236
(dp237
g11
I00
sg19
I00
sg20
I00
sg186
g0
(g103
g2
Ntp238
Rp239
(dp240
g11
I00
sg19
I00
sg37
I1
sg20
I00
sbsg102
g0
(g103
g2
Ntp241
Rp242
(dp243
g11
I00
sg19
I00
sg37
I10000000
sg20
I00
sbsg38
(lp244
g186
ag116
ag102
asg116
g0
(g33
g2
Ntp245
Rp246
(dp247
g11
I00
sg19
I00
sg37
I01
sg20
I00
sbsbsg38
(lp248
g214
ag179
ag150
ag57
ag131
ag162
ag108
ag151
ag116
asg162
g0
(g164
g2
Ntp249
Rp250
(dp251
g11
I00
sg19
I00
sg37
g214
sg20
I00
sbsbsbsS'trigEle'
p252
g0
(cFWCore.ParameterSet.Modules
EDFilter
p253
g2
Ntp254
Rp255
(dp256
g38
(lp257
S'debug'
p258
aS'noTrig'
p259
aS'yesTrig'
p260
aS'trigLabel'
p261
asg11
I00
sg20
I00
sg259
g0
(g13
g14
(lp262
tp263
Rp264
(dp265
g11
I00
sg19
I01
sg20
I00
sg21
I1
sbsg69
S'/home/liis/SingleTop/CMSSW_5_3_5/python/AnalysisCode/TriggerFilter/triggerfilter_cfi.py'
p266
sg260
g0
(g13
g14
(lp267
S'HLT_Ele27_WP80_v'
p268
atp269
Rp270
(dp271
g11
I00
sg19
I01
sg20
I00
sg21
I1
sbsS'_Labelable__label'
p272
g252
sg40
I42
sg258
g0
(g33
g2
Ntp273
Rp274
(dp275
g11
I00
sg19
I01
sg37
I00
sg20
I00
sbsg261
g0
(cFWCore.ParameterSet.Types
InputTag
p276
g2
Ntp277
Rp278
(dp279
g11
I00
sg19
I01
sg20
I00
sS'_InputTag__moduleLabel'
p280
S'patTriggerEvent'
p281
sS'_InputTag__processName'
p282
S''
p283
sS'_InputTag__productInstance'
p284
g283
sbsg46
S'TriggerFilter'
p285
sbsS'trigEleBtag'
p286
g0
(g253
g2
Ntp287
Rp288
(dp289
g38
(lp290
g258
ag259
ag260
ag261
asg11
I00
sg20
I00
sg259
g0
(g13
g14
(lp291
tp292
Rp293
(dp294
g11
I00
sg19
I01
sg20
I00
sg21
I1
sbsg69
g266
sg260
g0
(g13
g14
(lp295
S'HLT_Ele25_CaloIdVT_CaloIsoT_TrkIdT_TrkIsoT_CentralPFNoPUJet30_BTagIPIter_v'
p296
atp297
Rp298
(dp299
g11
I00
sg19
I01
sg20
I00
sg21
I1
sbsg272
g286
sg40
I35
sg258
g0
(g33
g2
Ntp300
Rp301
(dp302
g11
I00
sg19
I01
sg37
I00
sg20
I00
sbsg261
g0
(g276
g2
Ntp303
Rp304
(dp305
g11
I00
sg19
I01
sg20
I00
sg280
g281
sg282
g283
sg284
g283
sbsg46
g285
sbsS'_Process__sequences'
p306
(dp307
S'produceTopJetPairs'
p308
g0
(cFWCore.ParameterSet.SequenceTypes
Sequence
p309
g2
Ntp310
Rp311
(dp312
g11
I00
sS'_seq'
p313
g0
(cFWCore.ParameterSet.SequenceTypes
_SequenceCollection
p314
g2
Ntp315
Rp316
(dp317
S'_collection'
p318
(lp319
g0
(cFWCore.ParameterSet.Modules
EDProducer
p320
g2
Ntp321
Rp322
(dp323
g38
(lp324
S'srcLJet'
p325
aS'nuComputation'
p326
aS'srcBJet'
p327
ag258
aS'srcLepton'
p328
aS'srcMET'
p329
asg11
I00
sg20
I01
sg40
I15
sg69
S'/home/liis/SingleTop/CMSSW_5_3_5/python/AnalysisCode/TopProducer/topJetPair_cfi.py'
p330
sg329
g0
(g276
g2
Ntp331
Rp332
(dp333
g11
I00
sg19
I01
sg20
I00
sg280
S'patMETs'
p334
sg282
g283
sg284
g283
sbsg272
S'topJetPairs'
p335
sg258
g0
(g103
g2
Ntp336
Rp337
(dp338
g11
I00
sg19
I00
sg37
I0
sg20
I00
sbsg326
g0
(g103
g2
Ntp339
Rp340
(dp341
g11
I00
sg19
I00
sg37
I1
sg20
I00
sbsg327
g0
(g276
g2
Ntp342
Rp343
(dp344
g11
I00
sg19
I01
sg20
I00
sg280
S'bJet'
p345
sg282
g283
sg284
g283
sbsg325
g0
(g276
g2
Ntp346
Rp347
(dp348
g11
I00
sg19
I01
sg20
I00
sg280
S'lightJet'
p349
sg282
g283
sg284
g283
sbsg328
g0
(g276
g2
Ntp350
Rp351
(dp352
g11
I00
sg19
I01
sg20
I00
sg280
S'leptons'
p353
sg282
g283
sg284
S'goodLeptons'
p354
sbsg46
S'TopJetPairProducer'
p355
sbasbsg20
I00
sg272
g308
sbssS'trigMu'
p356
g0
(g253
g2
Ntp357
Rp358
(dp359
g38
(lp360
g258
ag259
ag260
ag261
asg11
I00
sg20
I00
sg259
g0
(g13
g14
(lp361
tp362
Rp363
(dp364
g11
I00
sg19
I01
sg20
I00
sg21
I1
sbsg69
g266
sg260
g0
(g13
g14
(lp365
S'HLT_IsoMu24_eta2p1_v'
p366
atp367
Rp368
(dp369
g11
I00
sg19
I01
sg20
I00
sg21
I1
sbsg272
g356
sg40
I21
sg258
g0
(g33
g2
Ntp370
Rp371
(dp372
g11
I00
sg19
I01
sg37
I00
sg20
I00
sbsg261
g0
(g276
g2
Ntp373
Rp374
(dp375
g11
I00
sg19
I01
sg20
I00
sg280
g281
sg282
g283
sg284
g283
sbsg46
g285
sbsS'stfilt'
p376
g0
(g253
g2
Ntp377
Rp378
(dp379
g38
(lp380
S'selection'
p381
aS'vetoLeptons'
p382
aS'bTagger'
p383
aS'leptonFlavors'
p384
aS'met'
p385
ag258
aS'jets'
p386
aS'bTagCut'
p387
ag354
asg11
I00
sg381
g0
(g164
g2
Ntp388
Rp389
(dp390
g11
I00
sg19
I01
sg37
S'TOP-12-011'
p391
sg20
I00
sbsg20
I01
sg382
g0
(g276
g2
Ntp392
Rp393
(dp394
g11
I00
sg19
I01
sg20
I00
sg280
g353
sg282
g283
sg284
g382
sbsg383
g0
(g164
g2
Ntp395
Rp396
(dp397
g11
I00
sg19
I01
sg37
S'combinedSecondaryVertexMVABJetTags'
p398
sg20
I00
sbsg258
g0
(g33
g2
Ntp399
Rp400
(dp401
g11
I00
sg19
I01
sg37
I00
sg20
I00
sbsg385
g0
(g276
g2
Ntp402
Rp403
(dp404
g11
I00
sg19
I01
sg20
I00
sg280
g334
sg282
g283
sg284
g283
sbsg40
I12
sg272
g376
sg69
S'/home/liis/SingleTop/CMSSW_5_3_5/python/AnalysisCode/SingleTopFilter/singletopfilter_cfi.py'
p405
sg384
g0
(cFWCore.ParameterSet.Types
vint32
p406
g14
(lp407
I11
atp408
Rp409
(dp410
g11
I00
sg19
I01
sg20
I00
sbsg386
g0
(g276
g2
Ntp411
Rp412
(dp413
g11
I00
sg19
I01
sg20
I00
sg280
S'selectedPatJets'
p414
sg282
g283
sg284
g283
sbsg387
g0
(cFWCore.ParameterSet.Types
double
p415
g2
Ntp416
Rp417
(dp418
g11
I00
sg19
I01
sg37
F0.67900000000000005
sg20
I00
sbsg46
S'SingleTopFilter'
p419
sg354
g0
(g276
g2
Ntp420
Rp421
(dp422
g11
I00
sg19
I01
sg20
I00
sg280
g353
sg282
g283
sg284
g354
sbsbsS'demo'
p423
g0
(cFWCore.ParameterSet.Modules
EDAnalyzer
p424
g2
Ntp425
Rp426
(dp427
g38
(lp428
sg11
I00
sg20
I00
sg40
I127
sg69
S'../singletopoptimization_cfg.py'
p429
sg272
g423
sg46
S'SingleTopOptimization'
p430
sbsS'_Process__services'
p431
(dp432
g6
g9
sS'TFileService'
p433
g0
(g7
g2
Ntp434
Rp435
(dp436
g38
(lp437
S'fileName'
p438
asg11
I00
sg20
I00
sg40
I10
sg69
g70
sg438
g0
(g164
g2
Ntp439
Rp440
(dp441
g11
I00
sg19
I01
sg37
S'optHistograms.root'
p442
sg20
I00
sbsg46
g433
sbssS'photonCounter'
p443
g0
(g253
g2
Ntp444
Rp445
(dp446
g38
(lp447
S'src'
p448
aS'minNumber'
p449
asg11
I00
sg20
I00
sg449
g0
(cFWCore.ParameterSet.Types
uint32
p450
g2
Ntp451
Rp452
(dp453
g11
I00
sg19
I01
sg37
I1
sg20
I00
sbsg448
g0
(g276
g2
Ntp454
Rp455
(dp456
g11
I00
sg19
I01
sg20
I00
sg280
g345
sg282
g283
sg284
g283
sbsg69
g429
sg40
I119
sg272
g443
sg46
S'CandViewCountFilter'
p457
sbsS'_Process__source'
p458
g0
(cFWCore.ParameterSet.Modules
Source
p459
g2
Ntp460
Rp461
(dp462
g38
(lp463
S'fileNames'
p464
aS'skipEvents'
p465
asg11
I00
sg20
I01
sg40
I175
sg69
g70
sg465
g0
(g450
g2
Ntp466
Rp467
(dp468
g11
I00
sg19
I00
sg37
I0
sg20
I00
sbsg464
g0
(g13
g14
(lp469
S'file:/hdfs/cms/store/user/mario/Tbar_t-channel_TuneZ2star_8TeV-powheg-tauola/Summer12-stop-pfele-step1/08612d4202e480038f4d455e921715e5/tuple_801_1_3b1.root'
p470
aS'file:/hdfs/cms/store/user/mario/Tbar_t-channel_TuneZ2star_8TeV-powheg-tauola/Summer12-stop-pfele-step1/08612d4202e480038f4d455e921715e5/tuple_802_1_q7T.root'
p471
aS'file:/hdfs/cms/store/user/mario/Tbar_t-channel_TuneZ2star_8TeV-powheg-tauola/Summer12-stop-pfele-step1/08612d4202e480038f4d455e921715e5/tuple_803_1_Opu.root'
p472
aS'file:/hdfs/cms/store/user/mario/Tbar_t-channel_TuneZ2star_8TeV-powheg-tauola/Summer12-stop-pfele-step1/08612d4202e480038f4d455e921715e5/tuple_804_1_mF9.root'
p473
aS'file:/hdfs/cms/store/user/mario/Tbar_t-channel_TuneZ2star_8TeV-powheg-tauola/Summer12-stop-pfele-step1/08612d4202e480038f4d455e921715e5/tuple_805_1_g8X.root'
p474
aS'file:/hdfs/cms/store/user/mario/Tbar_t-channel_TuneZ2star_8TeV-powheg-tauola/Summer12-stop-pfele-step1/08612d4202e480038f4d455e921715e5/tuple_806_1_fPK.root'
p475
aS'file:/hdfs/cms/store/user/mario/Tbar_t-channel_TuneZ2star_8TeV-powheg-tauola/Summer12-stop-pfele-step1/08612d4202e480038f4d455e921715e5/tuple_807_1_7BN.root'
p476
aS'file:/hdfs/cms/store/user/mario/Tbar_t-channel_TuneZ2star_8TeV-powheg-tauola/Summer12-stop-pfele-step1/08612d4202e480038f4d455e921715e5/tuple_808_1_V4W.root'
p477
aS'file:/hdfs/cms/store/user/mario/Tbar_t-channel_TuneZ2star_8TeV-powheg-tauola/Summer12-stop-pfele-step1/08612d4202e480038f4d455e921715e5/tuple_809_1_6WN.root'
p478
aS'file:/hdfs/cms/store/user/mario/Tbar_t-channel_TuneZ2star_8TeV-powheg-tauola/Summer12-stop-pfele-step1/08612d4202e480038f4d455e921715e5/tuple_80_1_HS6.root'
p479
aS'file:/hdfs/cms/store/user/mario/Tbar_t-channel_TuneZ2star_8TeV-powheg-tauola/Summer12-stop-pfele-step1/08612d4202e480038f4d455e921715e5/tuple_810_1_os9.root'
p480
aS'file:/hdfs/cms/store/user/mario/Tbar_t-channel_TuneZ2star_8TeV-powheg-tauola/Summer12-stop-pfele-step1/08612d4202e480038f4d455e921715e5/tuple_811_1_bMs.root'
p481
aS'file:/hdfs/cms/store/user/mario/Tbar_t-channel_TuneZ2star_8TeV-powheg-tauola/Summer12-stop-pfele-step1/08612d4202e480038f4d455e921715e5/tuple_812_1_g86.root'
p482
aS'file:/hdfs/cms/store/user/mario/Tbar_t-channel_TuneZ2star_8TeV-powheg-tauola/Summer12-stop-pfele-step1/08612d4202e480038f4d455e921715e5/tuple_813_1_EfY.root'
p483
aS'file:/hdfs/cms/store/user/mario/Tbar_t-channel_TuneZ2star_8TeV-powheg-tauola/Summer12-stop-pfele-step1/08612d4202e480038f4d455e921715e5/tuple_814_1_vBe.root'
p484
aS'file:/hdfs/cms/store/user/mario/Tbar_t-channel_TuneZ2star_8TeV-powheg-tauola/Summer12-stop-pfele-step1/08612d4202e480038f4d455e921715e5/tuple_815_1_MF7.root'
p485
aS'file:/hdfs/cms/store/user/mario/Tbar_t-channel_TuneZ2star_8TeV-powheg-tauola/Summer12-stop-pfele-step1/08612d4202e480038f4d455e921715e5/tuple_816_1_MJ8.root'
p486
aS'file:/hdfs/cms/store/user/mario/Tbar_t-channel_TuneZ2star_8TeV-powheg-tauola/Summer12-stop-pfele-step1/08612d4202e480038f4d455e921715e5/tuple_817_1_8ax.root'
p487
aS'file:/hdfs/cms/store/user/mario/Tbar_t-channel_TuneZ2star_8TeV-powheg-tauola/Summer12-stop-pfele-step1/08612d4202e480038f4d455e921715e5/tuple_818_1_K1g.root'
p488
aS'file:/hdfs/cms/store/user/mario/Tbar_t-channel_TuneZ2star_8TeV-powheg-tauola/Summer12-stop-pfele-step1/08612d4202e480038f4d455e921715e5/tuple_819_1_bGN.root'
p489
aS'file:/hdfs/cms/store/user/mario/Tbar_t-channel_TuneZ2star_8TeV-powheg-tauola/Summer12-stop-pfele-step1/08612d4202e480038f4d455e921715e5/tuple_81_1_UAp.root'
p490
aS'file:/hdfs/cms/store/user/mario/Tbar_t-channel_TuneZ2star_8TeV-powheg-tauola/Summer12-stop-pfele-step1/08612d4202e480038f4d455e921715e5/tuple_820_1_mRZ.root'
p491
aS'file:/hdfs/cms/store/user/mario/Tbar_t-channel_TuneZ2star_8TeV-powheg-tauola/Summer12-stop-pfele-step1/08612d4202e480038f4d455e921715e5/tuple_821_1_c2U.root'
p492
aS'file:/hdfs/cms/store/user/mario/Tbar_t-channel_TuneZ2star_8TeV-powheg-tauola/Summer12-stop-pfele-step1/08612d4202e480038f4d455e921715e5/tuple_822_1_sw7.root'
p493
aS'file:/hdfs/cms/store/user/mario/Tbar_t-channel_TuneZ2star_8TeV-powheg-tauola/Summer12-stop-pfele-step1/08612d4202e480038f4d455e921715e5/tuple_823_1_Aar.root'
p494
aS'file:/hdfs/cms/store/user/mario/Tbar_t-channel_TuneZ2star_8TeV-powheg-tauola/Summer12-stop-pfele-step1/08612d4202e480038f4d455e921715e5/tuple_824_1_JOu.root'
p495
aS'file:/hdfs/cms/store/user/mario/Tbar_t-channel_TuneZ2star_8TeV-powheg-tauola/Summer12-stop-pfele-step1/08612d4202e480038f4d455e921715e5/tuple_825_1_AGP.root'
p496
aS'file:/hdfs/cms/store/user/mario/Tbar_t-channel_TuneZ2star_8TeV-powheg-tauola/Summer12-stop-pfele-step1/08612d4202e480038f4d455e921715e5/tuple_826_1_3lX.root'
p497
aS'file:/hdfs/cms/store/user/mario/Tbar_t-channel_TuneZ2star_8TeV-powheg-tauola/Summer12-stop-pfele-step1/08612d4202e480038f4d455e921715e5/tuple_827_1_kDf.root'
p498
aS'file:/hdfs/cms/store/user/mario/Tbar_t-channel_TuneZ2star_8TeV-powheg-tauola/Summer12-stop-pfele-step1/08612d4202e480038f4d455e921715e5/tuple_828_1_rb6.root'
p499
aS'file:/hdfs/cms/store/user/mario/Tbar_t-channel_TuneZ2star_8TeV-powheg-tauola/Summer12-stop-pfele-step1/08612d4202e480038f4d455e921715e5/tuple_829_1_tGs.root'
p500
aS'file:/hdfs/cms/store/user/mario/Tbar_t-channel_TuneZ2star_8TeV-powheg-tauola/Summer12-stop-pfele-step1/08612d4202e480038f4d455e921715e5/tuple_82_1_sFG.root'
p501
aS'file:/hdfs/cms/store/user/mario/Tbar_t-channel_TuneZ2star_8TeV-powheg-tauola/Summer12-stop-pfele-step1/08612d4202e480038f4d455e921715e5/tuple_830_1_CE0.root'
p502
aS'file:/hdfs/cms/store/user/mario/Tbar_t-channel_TuneZ2star_8TeV-powheg-tauola/Summer12-stop-pfele-step1/08612d4202e480038f4d455e921715e5/tuple_831_1_H0k.root'
p503
aS'file:/hdfs/cms/store/user/mario/Tbar_t-channel_TuneZ2star_8TeV-powheg-tauola/Summer12-stop-pfele-step1/08612d4202e480038f4d455e921715e5/tuple_832_1_dMv.root'
p504
aS'file:/hdfs/cms/store/user/mario/Tbar_t-channel_TuneZ2star_8TeV-powheg-tauola/Summer12-stop-pfele-step1/08612d4202e480038f4d455e921715e5/tuple_833_1_7Ke.root'
p505
aS'file:/hdfs/cms/store/user/mario/Tbar_t-channel_TuneZ2star_8TeV-powheg-tauola/Summer12-stop-pfele-step1/08612d4202e480038f4d455e921715e5/tuple_834_1_3p0.root'
p506
aS'file:/hdfs/cms/store/user/mario/Tbar_t-channel_TuneZ2star_8TeV-powheg-tauola/Summer12-stop-pfele-step1/08612d4202e480038f4d455e921715e5/tuple_835_1_Ewk.root'
p507
aS'file:/hdfs/cms/store/user/mario/Tbar_t-channel_TuneZ2star_8TeV-powheg-tauola/Summer12-stop-pfele-step1/08612d4202e480038f4d455e921715e5/tuple_836_1_Y7r.root'
p508
aS'file:/hdfs/cms/store/user/mario/Tbar_t-channel_TuneZ2star_8TeV-powheg-tauola/Summer12-stop-pfele-step1/08612d4202e480038f4d455e921715e5/tuple_837_1_X81.root'
p509
aS'file:/hdfs/cms/store/user/mario/Tbar_t-channel_TuneZ2star_8TeV-powheg-tauola/Summer12-stop-pfele-step1/08612d4202e480038f4d455e921715e5/tuple_96_1_zdy.root'
p510
aS'file:/hdfs/cms/store/user/mario/Tbar_t-channel_TuneZ2star_8TeV-powheg-tauola/Summer12-stop-pfele-step1/08612d4202e480038f4d455e921715e5/tuple_97_1_v3J.root'
p511
aS'file:/hdfs/cms/store/user/mario/Tbar_t-channel_TuneZ2star_8TeV-powheg-tauola/Summer12-stop-pfele-step1/08612d4202e480038f4d455e921715e5/tuple_98_1_Dng.root'
p512
aS'file:/hdfs/cms/store/user/mario/Tbar_t-channel_TuneZ2star_8TeV-powheg-tauola/Summer12-stop-pfele-step1/08612d4202e480038f4d455e921715e5/tuple_99_1_cJA.root'
p513
aS'file:/hdfs/cms/store/user/mario/Tbar_t-channel_TuneZ2star_8TeV-powheg-tauola/Summer12-stop-pfele-step1/08612d4202e480038f4d455e921715e5/tuple_9_1_iDk.root'
p514
aS'file:/hdfs/cms/store/user/mario/Tbar_t-channel_TuneZ2star_8TeV-powheg-tauola/Summer12-stop-pfele-step1/08612d4202e480038f4d455e921715e5/tuple_359_2_FTu.root'
p515
aS'file:/hdfs/cms/store/user/mario/Tbar_t-channel_TuneZ2star_8TeV-powheg-tauola/Summer12-stop-pfele-step1/08612d4202e480038f4d455e921715e5/tuple_35_1_kDA.root'
p516
aS'file:/hdfs/cms/store/user/mario/Tbar_t-channel_TuneZ2star_8TeV-powheg-tauola/Summer12-stop-pfele-step1/08612d4202e480038f4d455e921715e5/tuple_360_2_BKu.root'
p517
aS'file:/hdfs/cms/store/user/mario/Tbar_t-channel_TuneZ2star_8TeV-powheg-tauola/Summer12-stop-pfele-step1/08612d4202e480038f4d455e921715e5/tuple_361_2_zIr.root'
p518
aS'file:/hdfs/cms/store/user/mario/Tbar_t-channel_TuneZ2star_8TeV-powheg-tauola/Summer12-stop-pfele-step1/08612d4202e480038f4d455e921715e5/tuple_362_2_Epp.root'
p519
aS'file:/hdfs/cms/store/user/mario/Tbar_t-channel_TuneZ2star_8TeV-powheg-tauola/Summer12-stop-pfele-step1/08612d4202e480038f4d455e921715e5/tuple_363_2_Hg6.root'
p520
aS'file:/hdfs/cms/store/user/mario/Tbar_t-channel_TuneZ2star_8TeV-powheg-tauola/Summer12-stop-pfele-step1/08612d4202e480038f4d455e921715e5/tuple_364_2_zvn.root'
p521
aS'file:/hdfs/cms/store/user/mario/Tbar_t-channel_TuneZ2star_8TeV-powheg-tauola/Summer12-stop-pfele-step1/08612d4202e480038f4d455e921715e5/tuple_365_2_7In.root'
p522
aS'file:/hdfs/cms/store/user/mario/Tbar_t-channel_TuneZ2star_8TeV-powheg-tauola/Summer12-stop-pfele-step1/08612d4202e480038f4d455e921715e5/tuple_366_1_tFw.root'
p523
aS'file:/hdfs/cms/store/user/mario/Tbar_t-channel_TuneZ2star_8TeV-powheg-tauola/Summer12-stop-pfele-step1/08612d4202e480038f4d455e921715e5/tuple_367_2_6k9.root'
p524
aS'file:/hdfs/cms/store/user/mario/Tbar_t-channel_TuneZ2star_8TeV-powheg-tauola/Summer12-stop-pfele-step1/08612d4202e480038f4d455e921715e5/tuple_368_1_L4y.root'
p525
aS'file:/hdfs/cms/store/user/mario/Tbar_t-channel_TuneZ2star_8TeV-powheg-tauola/Summer12-stop-pfele-step1/08612d4202e480038f4d455e921715e5/tuple_369_2_Ncn.root'
p526
aS'file:/hdfs/cms/store/user/mario/Tbar_t-channel_TuneZ2star_8TeV-powheg-tauola/Summer12-stop-pfele-step1/08612d4202e480038f4d455e921715e5/tuple_36_1_n87.root'
p527
aS'file:/hdfs/cms/store/user/mario/Tbar_t-channel_TuneZ2star_8TeV-powheg-tauola/Summer12-stop-pfele-step1/08612d4202e480038f4d455e921715e5/tuple_370_1_MTl.root'
p528
aS'file:/hdfs/cms/store/user/mario/Tbar_t-channel_TuneZ2star_8TeV-powheg-tauola/Summer12-stop-pfele-step1/08612d4202e480038f4d455e921715e5/tuple_371_2_0Z4.root'
p529
aS'file:/hdfs/cms/store/user/mario/Tbar_t-channel_TuneZ2star_8TeV-powheg-tauola/Summer12-stop-pfele-step1/08612d4202e480038f4d455e921715e5/tuple_372_2_IMN.root'
p530
aS'file:/hdfs/cms/store/user/mario/Tbar_t-channel_TuneZ2star_8TeV-powheg-tauola/Summer12-stop-pfele-step1/08612d4202e480038f4d455e921715e5/tuple_373_2_JXS.root'
p531
aS'file:/hdfs/cms/store/user/mario/Tbar_t-channel_TuneZ2star_8TeV-powheg-tauola/Summer12-stop-pfele-step1/08612d4202e480038f4d455e921715e5/tuple_374_2_0RM.root'
p532
aS'file:/hdfs/cms/store/user/mario/Tbar_t-channel_TuneZ2star_8TeV-powheg-tauola/Summer12-stop-pfele-step1/08612d4202e480038f4d455e921715e5/tuple_375_1_7RF.root'
p533
aS'file:/hdfs/cms/store/user/mario/Tbar_t-channel_TuneZ2star_8TeV-powheg-tauola/Summer12-stop-pfele-step1/08612d4202e480038f4d455e921715e5/tuple_376_2_4mO.root'
p534
aS'file:/hdfs/cms/store/user/mario/Tbar_t-channel_TuneZ2star_8TeV-powheg-tauola/Summer12-stop-pfele-step1/08612d4202e480038f4d455e921715e5/tuple_377_2_cKj.root'
p535
aS'file:/hdfs/cms/store/user/mario/Tbar_t-channel_TuneZ2star_8TeV-powheg-tauola/Summer12-stop-pfele-step1/08612d4202e480038f4d455e921715e5/tuple_378_2_9bZ.root'
p536
aS'file:/hdfs/cms/store/user/mario/Tbar_t-channel_TuneZ2star_8TeV-powheg-tauola/Summer12-stop-pfele-step1/08612d4202e480038f4d455e921715e5/tuple_379_1_fYM.root'
p537
aS'file:/hdfs/cms/store/user/mario/Tbar_t-channel_TuneZ2star_8TeV-powheg-tauola/Summer12-stop-pfele-step1/08612d4202e480038f4d455e921715e5/tuple_37_1_Y52.root'
p538
atp539
Rp540
(dp541
g11
I00
sg19
I00
sg20
I00
sg21
I1
sbsg46
S'PoolSource'
p542
sbsS'printEventContent'
p543
g0
(g424
g2
Ntp544
Rp545
(dp546
g38
(lp547
sg11
I00
sg20
I00
sg40
I129
sg69
g429
sg272
g543
sg46
S'EventContentAnalyzer'
p548
sbsS'trigEleAll'
p549
g0
(g253
g2
Ntp550
Rp551
(dp552
g38
(lp553
g258
ag259
ag260
ag261
asg11
I00
sg20
I00
sg259
g0
(g13
g14
(lp554
tp555
Rp556
(dp557
g11
I00
sg19
I01
sg20
I00
sg21
I1
sbsg69
g266
sg260
g0
(g13
g14
(lp558
g268
ag296
atp559
Rp560
(dp561
g11
I00
sg19
I01
sg20
I00
sg21
I1
sbsg272
g549
sg40
I28
sg258
g0
(g33
g2
Ntp562
Rp563
(dp564
g11
I00
sg19
I01
sg37
I00
sg20
I00
sbsg261
g0
(g276
g2
Ntp565
Rp566
(dp567
g11
I00
sg19
I01
sg20
I00
sg280
g281
sg282
g283
sg284
g283
sbsg46
g285
sbsg335
g322
sg308
g311
sg414
g0
(g253
g2
Ntp568
Rp569
(dp570
g38
(lp571
g448
aS'cut'
p572
asg11
I00
sg572
g0
(g164
g2
Ntp573
Rp574
(dp575
g11
I00
sg19
I01
sg37
S'userFloat("smearPt") > 40'
p576
sg20
I01
sbsg20
I01
sg448
g0
(g276
g2
Ntp577
Rp578
(dp579
g11
I00
sg19
I01
sg20
I00
sg280
S'smearedJets'
p580
sg282
g283
sg284
g283
sbsg69
S'/home/liis/SingleTop/CMSSW_5_3_5/python/PhysicsTools/PatAlgos/selectionLayer1/jetSelector_cfi.py'
p581
sg40
I9
sg272
g414
sg46
S'PATJetSelector'
p582
sbsS'_Process__psets'
p583
(dp584
S'maxEvents'
p585
g0
(g28
g2
Ntp586
Rp587
(dp588
g11
I00
sg19
I00
sg20
I01
sg38
(lp589
S'input'
p590
asg272
g585
sg590
g0
(g103
g2
Ntp591
Rp592
(dp593
g11
I00
sg19
I00
sg37
I1
sg20
I00
sbsbssg433
g435
sS'_Process__essources'
p594
(dp595
sg542
g461
sg585
g587
sS'source'
p596
g461
sS'_Process__vpsets'
p597
(dp598
sS'_Process__name'
p599
S'Analysis'
p600
sS'trig'
p601
g0
(g253
g2
Ntp602
Rp603
(dp604
g38
(lp605
g258
ag259
ag260
ag261
asg11
I00
sg20
I00
sg259
g0
(g13
g14
(lp606
tp607
Rp608
(dp609
g11
I00
sg19
I01
sg20
I00
sg21
I1
sbsg69
g266
sg260
g0
(g13
g14
(lp610
g268
ag296
ag366
aS'HLT_IsoMu17_eta2p1_CentralPFNoPUJet30_BTagIPIter_v'
p611
atp612
Rp613
(dp614
g11
I00
sg19
I01
sg20
I00
sg21
I1
sbsg272
g601
sg40
I54
sg258
g0
(g33
g2
Ntp615
Rp616
(dp617
g11
I00
sg19
I01
sg37
I00
sg20
I00
sbsg261
g0
(g276
g2
Ntp618
Rp619
(dp620
g11
I00
sg19
I01
sg20
I00
sg280
g281
sg282
g283
sg284
g283
sbsg46
g285
sbsS'_cloneToObjectDict'
p621
(dp622
I33125200
g0
(g320
g2
Ntp623
Rp624
(dp625
g38
(lp626
S'goodMuLab'
p627
aS'vetoElLab'
p628
aS'goodElLab'
p629
aS'vetoMuLab'
p630
aS'pvLab'
p631
ag258
aS'goodElMvaEE'
p632
aS'goodElMvaEB'
p633
asg11
I00
sg632
g0
(g415
g2
Ntp634
Rp635
(dp636
g11
I00
sg19
I01
sg37
F0.94999999999999996
sg20
I00
sbsg20
I01
sg40
I11
sg69
S'/home/liis/SingleTop/CMSSW_5_3_5/python/AnalysisCode/LeptonsProducer/leptonsproducer_cfi.py'
p637
sg628
g0
(g276
g2
Ntp638
Rp639
(dp640
g11
I00
sg19
I01
sg20
I00
sg280
S'vetoElectrons'
p641
sg282
g283
sg284
g283
sbsg629
g0
(g276
g2
Ntp642
Rp643
(dp644
g11
I00
sg19
I01
sg20
I00
sg280
S'goodElectrons'
p645
sg282
g283
sg284
g283
sbsg272
g353
sg630
g0
(g276
g2
Ntp646
Rp647
(dp648
g11
I00
sg19
I01
sg20
I00
sg280
S'vetoMuons'
p649
sg282
g283
sg284
g283
sbsg631
g0
(g276
g2
Ntp650
Rp651
(dp652
g11
I00
sg19
I01
sg20
I00
sg280
S'goodOfflinePrimaryVertices'
p653
sg282
g283
sg284
g283
sbsg258
g0
(g33
g2
Ntp654
Rp655
(dp656
g11
I00
sg19
I01
sg37
I00
sg20
I00
sbsg627
g0
(g276
g2
Ntp657
Rp658
(dp659
g11
I00
sg19
I01
sg20
I00
sg280
S'goodMuons'
p660
sg282
g283
sg284
g283
sbsg633
g0
(g415
g2
Ntp661
Rp662
(dp663
g11
I00
sg19
I01
sg37
F0.97999999999999998
sg20
I00
sbsg46
S'LeptonsProducer'
p664
sbsI33226000
g603
sI33225616
g288
sI33126096
g0
(g253
g2
Ntp665
Rp666
(dp667
g38
(lp668
g448
ag572
asg11
I00
sg572
g0
(g164
g2
Ntp669
Rp670
(dp671
g11
I00
sg19
I01
sg37
S'bDiscriminator("combinedSecondaryVertexMVABJetTags") > 0.679'
p672
sg20
I01
sbsg20
I01
sg448
g0
(g276
g2
Ntp673
Rp674
(dp675
g11
I00
sg19
I01
sg20
I00
sg280
g414
sg284
g283
sg282
g283
sbsg69
g429
sg40
I113
sg272
g345
sg46
g582
sbsI33225808
g255
sI33224848
g0
(g253
g2
Ntp676
Rp677
(dp678
g38
(lp679
g258
ag259
ag260
ag261
asg11
I00
sg20
I00
sg259
g0
(g13
g14
(lp680
tp681
Rp682
(dp683
g11
I00
sg19
I01
sg20
I00
sg21
I1
sbsg69
g266
sg260
g0
(g13
g14
(lp684
g366
ag611
atp685
Rp686
(dp687
g11
I00
sg19
I01
sg20
I00
sg21
I1
sbsg272
S'trigMuAll'
p688
sg40
I7
sg258
g0
(g33
g2
Ntp689
Rp690
(dp691
g11
I00
sg19
I01
sg37
I00
sg20
I00
sbsg261
g0
(g276
g2
Ntp692
Rp693
(dp694
g11
I00
sg19
I01
sg20
I00
sg280
g281
sg282
g283
sg284
g283
sbsg46
g285
sbsI33125776
g0
(g253
g2
Ntp695
Rp696
(dp697
g38
(lp698
g448
ag572
asg11
I00
sg572
g0
(g164
g2
Ntp699
Rp700
(dp701
g11
I00
sg19
I01
sg37
S'bDiscriminator("combinedSecondaryVertexMVABJetTags") < 0.679 & userFloat("RMS") < 0.025'
p702
sg20
I01
sbsg20
I01
sg448
g0
(g276
g2
Ntp703
Rp704
(dp705
g11
I00
sg19
I01
sg20
I00
sg280
g414
sg282
g283
sg284
g283
sbsg69
g429
sg40
I109
sg272
g349
sg46
g582
sbsI33780176
g426
sI33780048
g322
sI33124496
g569
sI33224464
g587
sI33225104
g0
(g253
g2
Ntp706
Rp707
(dp708
g38
(lp709
g258
ag259
ag260
ag261
asg11
I00
sg20
I00
sg259
g0
(g13
g14
(lp710
tp711
Rp712
(dp713
g11
I00
sg19
I01
sg20
I00
sg21
I1
sbsg69
g266
sg260
g0
(g13
g14
(lp714
g611
atp715
Rp716
(dp717
g11
I00
sg19
I01
sg20
I00
sg21
I1
sbsg272
S'trigMuBtag'
p718
sg40
I14
sg258
g0
(g33
g2
Ntp719
Rp720
(dp721
g11
I00
sg19
I01
sg37
I00
sg20
I00
sbsg261
g0
(g276
g2
Ntp722
Rp723
(dp724
g11
I00
sg19
I01
sg20
I00
sg280
g281
sg282
g283
sg284
g283
sbsg46
g285
sbsI33125840
g378
sI33780304
g311
sI33225296
g358
sI33091280
g445
sI33226384
g0
(g320
g2
Ntp725
Rp726
(dp727
g38
(lp728
g258
aS'inLabel'
p729
aS'etaBins'
p730
aS'factors'
p731
asg11
I00
sg20
I01
sg731
g0
(cFWCore.ParameterSet.Types
vdouble
p732
g14
(lp733
F1.052
aF1.0569999999999999
aF1.0960000000000001
aF1.1339999999999999
aF1.288
atp734
Rp735
(dp736
g11
I00
sg19
I01
sg20
I00
sbsg69
S'/home/liis/SingleTop/CMSSW_5_3_5/python/AnalysisCode/SmearedJetProducer/smearedjetproducer_cfi.py'
p737
sg730
g0
(g732
g14
(lp738
F0.5
aF1.1000000000000001
aF1.7
aF2.2999999999999998
aF5.0
atp739
Rp740
(dp741
g11
I00
sg19
I01
sg20
I00
sbsg272
g580
sg40
I7
sg258
g0
(g33
g2
Ntp742
Rp743
(dp744
g11
I00
sg19
I01
sg37
I00
sg20
I00
sbsg729
g0
(g276
g2
Ntp745
Rp746
(dp747
g11
I00
sg19
I01
sg20
I00
sg280
g414
sg282
g283
sg284
g283
sbsg46
S'SmearedJetProducer'
p748
sbsI33225424
g551
sI33780560
g0
(cFWCore.ParameterSet.SequenceTypes
Path
p749
g2
Ntp750
Rp751
(dp752
g11
I00
sg313
g0
(g314
g2
Ntp753
Rp754
(dp755
g318
(lp756
g726
ag569
ag624
ag696
ag666
ag378
ag311
ag426
asbsg20
I00
sg272
S'p'
p757
sbsI33780368
g545
ssg718
g707
sg757
g751
sg349
g696
sS'_Process__esprefers'
p758
(dp759
sg345
g666
sS'_Process__isStrict'
p760
I00
sg353
g624
sS'_Process__partialschedules'
p761
(dp762
sS'_Process__outputmodules'
p763
(dp764
sS'_Process__analyzers'
p765
(dp766
g423
g426
sg543
g545
ssS'_Process__InExtendCall'
p767
I00
sS'_Process__producers'
p768
(dp769
g335
g322
sg580
g726
sg353
g624
ssS'_Process__filters'
p770
(dp771
g252
g255
sg376
g378
sg356
g358
sg414
g569
sg688
g677
sg601
g603
sg286
g288
sg718
g707
sg349
g696
sg345
g666
sg443
g445
sg549
g551
ssS'_Process__looper'
p772
Nsg580
g726
sS'_Process__endpaths'
p773
g0
(cFWCore.ParameterSet.DictTypes
SortedKeysDict
p774
c__builtin__
dict
p775
(dp776
tp777
Rp778
(dp779
S'list'
p780
(lp781
sbsS'_Process__esproducers'
p782
(dp783
sg688
g677
sS'_Process__paths'
p784
g0
(g774
g775
(dp785
g757
g751
stp786
Rp787
(dp788
g780
(lp789
g757
asbsS'_Process__subProcess'
p790
NsS'_Process__schedule'
p791
Nsb.