ccopy_reg
_reconstructor
p0
(cFWCore.ParameterSet.Config
Process
p1
c__builtin__
object
p2
Ntp3
Rp4
(dp5
S'MessageLogger'
p6
g0
(cFWCore.ParameterSet.Modules
Service
p7
g2
Ntp8
Rp9
(dp10
S'_isFrozen'
p11
I00
sS'suppressInfo'
p12
g0
(cFWCore.ParameterSet.Types
vstring
p13
c__builtin__
list
p14
(lp15
tp16
Rp17
(dp18
g11
I00
sS'_ParameterTypeBase__isTracked'
p19
I00
sS'_isModified'
p20
I00
sS'_nPerLine'
p21
I1
sbsS'suppressDebug'
p22
g0
(g13
g14
(lp23
tp24
Rp25
(dp26
g11
I00
sg19
I00
sg20
I00
sg21
I1
sbsS'cout'
p27
g0
(cFWCore.ParameterSet.Types
PSet
p28
g2
Ntp29
Rp30
(dp31
g11
I00
sg19
I00
sS'placeholder'
p32
g0
(cFWCore.ParameterSet.Types
bool
p33
g2
Ntp34
Rp35
(dp36
g11
I00
sg19
I00
sS'_value'
p37
I01
sg20
I00
sbsg20
I00
sS'_Parameterizable__parameterNames'
p38
(lp39
g32
asbsS'_lineNumber'
p40
I10
sS'debugModules'
p41
g0
(g13
g14
(lp42
tp43
Rp44
(dp45
g11
I00
sg19
I00
sg20
I00
sg21
I1
sbsS'_TypedParameterizable__type'
p46
g6
sS'fwkJobReports'
p47
g0
(g13
g14
(lp48
S'FrameworkJobReport'
p49
atp50
Rp51
(dp52
g11
I00
sg19
I00
sg20
I00
sg21
I1
sbsg38
(lp53
g12
aS'debugs'
p54
ag22
ag27
aS'cerr_stats'
p55
aS'warnings'
p56
aS'default'
p57
aS'statistics'
p58
aS'cerr'
p59
ag49
aS'suppressWarning'
p60
aS'errors'
p61
aS'destinations'
p62
ag41
aS'infos'
p63
aS'categories'
p64
ag47
asg58
g0
(g13
g14
(lp65
g55
atp66
Rp67
(dp68
g11
I00
sg19
I00
sg20
I00
sg21
I1
sbsS'_filename'
p69
S'/cvmfs/cms.cern.ch/slc5_amd64_gcc462/cms/cmssw/CMSSW_5_3_5/python/FWCore/ParameterSet/Modules.py'
p70
sg62
g0
(g13
g14
(lp71
g56
ag61
ag63
ag54
ag27
ag59
atp72
Rp73
(dp74
g11
I00
sg19
I00
sg20
I00
sg21
I1
sbsg54
g0
(g28
g2
Ntp75
Rp76
(dp77
g11
I00
sg19
I00
sg32
g0
(g33
g2
Ntp78
Rp79
(dp80
g11
I00
sg19
I00
sg37
I01
sg20
I00
sbsg20
I00
sg38
(lp81
g32
asbsg56
g0
(g28
g2
Ntp82
Rp83
(dp84
g11
I00
sg19
I00
sg32
g0
(g33
g2
Ntp85
Rp86
(dp87
g11
I00
sg19
I00
sg37
I01
sg20
I00
sbsg20
I00
sg38
(lp88
g32
asbsg61
g0
(g28
g2
Ntp89
Rp90
(dp91
g11
I00
sg19
I00
sg32
g0
(g33
g2
Ntp92
Rp93
(dp94
g11
I00
sg19
I00
sg37
I01
sg20
I00
sbsg20
I00
sg38
(lp95
g32
asbsg49
g0
(g28
g2
Ntp96
Rp97
(dp98
g11
I00
sg19
I00
sg20
I00
sg57
g0
(g28
g2
Ntp99
Rp100
(dp101
g11
I00
sg19
I00
sS'limit'
p102
g0
(cFWCore.ParameterSet.Types
int32
p103
g2
Ntp104
Rp105
(dp106
g11
I00
sg19
I00
sg37
I0
sg20
I00
sbsg20
I00
sg38
(lp107
g102
asbsS'FwkJob'
p108
g0
(g28
g2
Ntp109
Rp110
(dp111
g11
I00
sg19
I00
sg20
I00
sg102
g0
(g103
g2
Ntp112
Rp113
(dp114
g11
I00
sg19
I00
sg37
I10000000
sg20
I00
sbsg38
(lp115
S'optionalPSet'
p116
ag102
asg116
g0
(g33
g2
Ntp117
Rp118
(dp119
g11
I00
sg19
I00
sg37
I01
sg20
I00
sbsbsg38
(lp120
g57
ag116
ag108
asg116
g0
(g33
g2
Ntp121
Rp122
(dp123
g11
I00
sg19
I00
sg37
I01
sg20
I00
sbsbsg60
g0
(g13
g14
(lp124
tp125
Rp126
(dp127
g11
I00
sg19
I00
sg20
I00
sg21
I1
sbsg63
g0
(g28
g2
Ntp128
Rp129
(dp130
g11
I00
sg19
I00
sg20
I00
sS'Root_NoDictionary'
p131
g0
(g28
g2
Ntp132
Rp133
(dp134
g11
I00
sg19
I00
sg20
I00
sg102
g0
(g103
g2
Ntp135
Rp136
(dp137
g11
I00
sg19
I00
sg37
I0
sg20
I00
sbsg38
(lp138
g116
ag102
asg116
g0
(g33
g2
Ntp139
Rp140
(dp141
g11
I00
sg19
I00
sg37
I01
sg20
I00
sbsbsg38
(lp142
g116
ag131
ag32
asg116
g0
(g33
g2
Ntp143
Rp144
(dp145
g11
I00
sg19
I00
sg37
I01
sg20
I00
sbsg32
g0
(g33
g2
Ntp146
Rp147
(dp148
g11
I00
sg19
I00
sg37
I01
sg20
I00
sbsbsg64
g0
(g13
g14
(lp149
g108
aS'FwkReport'
p150
aS'FwkSummary'
p151
ag131
atp152
Rp153
(dp154
g11
I00
sg19
I00
sg20
I00
sg21
I1
sbsg20
I00
sg55
g0
(g28
g2
Ntp155
Rp156
(dp157
g11
I00
sg19
I00
sg20
I00
sg116
g0
(g33
g2
Ntp158
Rp159
(dp160
g11
I00
sg19
I00
sg37
I01
sg20
I00
sbsg38
(lp161
S'threshold'
p162
aS'output'
p163
ag116
asg162
g0
(cFWCore.ParameterSet.Types
string
p164
g2
Ntp165
Rp166
(dp167
g11
I00
sg19
I00
sg37
S'WARNING'
p168
sg20
I00
sbsg163
g0
(g164
g2
Ntp169
Rp170
(dp171
g11
I00
sg19
I00
sg37
g59
sg20
I00
sbsbsg57
g0
(g28
g2
Ntp172
Rp173
(dp174
g11
I00
sg19
I00
sg20
I00
sg38
(lp175
sbsg59
g0
(g28
g2
Ntp176
Rp177
(dp178
g11
I00
sg19
I00
sS'noTimeStamps'
p179
g0
(g33
g2
Ntp180
Rp181
(dp182
g11
I00
sg19
I00
sg37
I00
sg20
I00
sbsg150
g0
(g28
g2
Ntp183
Rp184
(dp185
g11
I00
sg19
I00
sg20
I01
sS'reportEvery'
p186
g0
(g103
g2
Ntp187
Rp188
(dp189
g11
I00
sg19
I00
sg37
I1000
sg20
I01
sbsg102
g0
(g103
g2
Ntp190
Rp191
(dp192
g11
I00
sg19
I00
sg37
I10000000
sg20
I00
sbsg38
(lp193
g186
ag116
ag102
asg116
g0
(g33
g2
Ntp194
Rp195
(dp196
g11
I00
sg19
I00
sg37
I01
sg20
I00
sbsbsg20
I00
sg57
g0
(g28
g2
Ntp197
Rp198
(dp199
g11
I00
sg19
I00
sg102
g0
(g103
g2
Ntp200
Rp201
(dp202
g11
I00
sg19
I00
sg37
I10000000
sg20
I00
sbsg20
I00
sg38
(lp203
g102
asbsg131
g0
(g28
g2
Ntp204
Rp205
(dp206
g11
I00
sg19
I00
sg20
I00
sg102
g0
(g103
g2
Ntp207
Rp208
(dp209
g11
I00
sg19
I00
sg37
I0
sg20
I00
sbsg38
(lp210
g116
ag102
asg116
g0
(g33
g2
Ntp211
Rp212
(dp213
g11
I00
sg19
I00
sg37
I01
sg20
I00
sbsbsS'INFO'
p214
g0
(g28
g2
Ntp215
Rp216
(dp217
g11
I00
sg19
I00
sg102
g0
(g103
g2
Ntp218
Rp219
(dp220
g11
I00
sg19
I00
sg37
I0
sg20
I00
sbsg20
I00
sg38
(lp221
g102
asbsg116
g0
(g33
g2
Ntp222
Rp223
(dp224
g11
I00
sg19
I00
sg37
I01
sg20
I00
sbsg108
g0
(g28
g2
Ntp225
Rp226
(dp227
g11
I00
sg19
I00
sg20
I00
sg102
g0
(g103
g2
Ntp228
Rp229
(dp230
g11
I00
sg19
I00
sg37
I0
sg20
I00
sbsg38
(lp231
g116
ag102
asg116
g0
(g33
g2
Ntp232
Rp233
(dp234
g11
I00
sg19
I00
sg37
I01
sg20
I00
sbsbsg151
g0
(g28
g2
Ntp235
Rp236
(dp237
g11
I00
sg19
I00
sg20
I00
sg186
g0
(g103
g2
Ntp238
Rp239
(dp240
g11
I00
sg19
I00
sg37
I1
sg20
I00
sbsg102
g0
(g103
g2
Ntp241
Rp242
(dp243
g11
I00
sg19
I00
sg37
I10000000
sg20
I00
sbsg38
(lp244
g186
ag116
ag102
asg116
g0
(g33
g2
Ntp245
Rp246
(dp247
g11
I00
sg19
I00
sg37
I01
sg20
I00
sbsbsg38
(lp248
g214
ag179
ag150
ag57
ag131
ag162
ag108
ag151
ag116
asg162
g0
(g164
g2
Ntp249
Rp250
(dp251
g11
I00
sg19
I00
sg37
g214
sg20
I00
sbsbsbsS'trigEle'
p252
g0
(cFWCore.ParameterSet.Modules
EDFilter
p253
g2
Ntp254
Rp255
(dp256
g38
(lp257
S'debug'
p258
aS'noTrig'
p259
aS'yesTrig'
p260
aS'trigLabel'
p261
asg11
I00
sg20
I00
sg259
g0
(g13
g14
(lp262
tp263
Rp264
(dp265
g11
I00
sg19
I01
sg20
I00
sg21
I1
sbsg69
S'/home/liis/SingleTop/CMSSW_5_3_5/python/AnalysisCode/TriggerFilter/triggerfilter_cfi.py'
p266
sg260
g0
(g13
g14
(lp267
S'HLT_Ele27_WP80_v'
p268
atp269
Rp270
(dp271
g11
I00
sg19
I01
sg20
I00
sg21
I1
sbsS'_Labelable__label'
p272
g252
sg40
I42
sg258
g0
(g33
g2
Ntp273
Rp274
(dp275
g11
I00
sg19
I01
sg37
I00
sg20
I00
sbsg261
g0
(cFWCore.ParameterSet.Types
InputTag
p276
g2
Ntp277
Rp278
(dp279
g11
I00
sg19
I01
sg20
I00
sS'_InputTag__moduleLabel'
p280
S'patTriggerEvent'
p281
sS'_InputTag__processName'
p282
S''
p283
sS'_InputTag__productInstance'
p284
g283
sbsg46
S'TriggerFilter'
p285
sbsS'trigEleBtag'
p286
g0
(g253
g2
Ntp287
Rp288
(dp289
g38
(lp290
g258
ag259
ag260
ag261
asg11
I00
sg20
I00
sg259
g0
(g13
g14
(lp291
tp292
Rp293
(dp294
g11
I00
sg19
I01
sg20
I00
sg21
I1
sbsg69
g266
sg260
g0
(g13
g14
(lp295
S'HLT_Ele25_CaloIdVT_CaloIsoT_TrkIdT_TrkIsoT_CentralPFNoPUJet30_BTagIPIter_v'
p296
atp297
Rp298
(dp299
g11
I00
sg19
I01
sg20
I00
sg21
I1
sbsg272
g286
sg40
I35
sg258
g0
(g33
g2
Ntp300
Rp301
(dp302
g11
I00
sg19
I01
sg37
I00
sg20
I00
sbsg261
g0
(g276
g2
Ntp303
Rp304
(dp305
g11
I00
sg19
I01
sg20
I00
sg280
g281
sg282
g283
sg284
g283
sbsg46
g285
sbsS'_Process__sequences'
p306
(dp307
S'produceTopJetPairs'
p308
g0
(cFWCore.ParameterSet.SequenceTypes
Sequence
p309
g2
Ntp310
Rp311
(dp312
g11
I00
sS'_seq'
p313
g0
(cFWCore.ParameterSet.SequenceTypes
_SequenceCollection
p314
g2
Ntp315
Rp316
(dp317
S'_collection'
p318
(lp319
g0
(cFWCore.ParameterSet.Modules
EDProducer
p320
g2
Ntp321
Rp322
(dp323
g38
(lp324
S'srcLJet'
p325
aS'nuComputation'
p326
aS'srcBJet'
p327
ag258
aS'srcLepton'
p328
aS'srcMET'
p329
asg11
I00
sg20
I01
sg40
I15
sg69
S'/home/liis/SingleTop/CMSSW_5_3_5/python/AnalysisCode/TopProducer/topJetPair_cfi.py'
p330
sg329
g0
(g276
g2
Ntp331
Rp332
(dp333
g11
I00
sg19
I01
sg20
I00
sg280
S'patMETs'
p334
sg282
g283
sg284
g283
sbsg272
S'topJetPairs'
p335
sg258
g0
(g103
g2
Ntp336
Rp337
(dp338
g11
I00
sg19
I00
sg37
I0
sg20
I00
sbsg326
g0
(g103
g2
Ntp339
Rp340
(dp341
g11
I00
sg19
I00
sg37
I1
sg20
I00
sbsg327
g0
(g276
g2
Ntp342
Rp343
(dp344
g11
I00
sg19
I01
sg20
I00
sg280
S'bJet'
p345
sg282
g283
sg284
g283
sbsg325
g0
(g276
g2
Ntp346
Rp347
(dp348
g11
I00
sg19
I01
sg20
I00
sg280
S'lightJet'
p349
sg282
g283
sg284
g283
sbsg328
g0
(g276
g2
Ntp350
Rp351
(dp352
g11
I00
sg19
I01
sg20
I00
sg280
S'leptons'
p353
sg282
g283
sg284
S'goodLeptons'
p354
sbsg46
S'TopJetPairProducer'
p355
sbasbsg20
I00
sg272
g308
sbssS'trigMu'
p356
g0
(g253
g2
Ntp357
Rp358
(dp359
g38
(lp360
g258
ag259
ag260
ag261
asg11
I00
sg20
I00
sg259
g0
(g13
g14
(lp361
tp362
Rp363
(dp364
g11
I00
sg19
I01
sg20
I00
sg21
I1
sbsg69
g266
sg260
g0
(g13
g14
(lp365
S'HLT_IsoMu24_eta2p1_v'
p366
atp367
Rp368
(dp369
g11
I00
sg19
I01
sg20
I00
sg21
I1
sbsg272
g356
sg40
I21
sg258
g0
(g33
g2
Ntp370
Rp371
(dp372
g11
I00
sg19
I01
sg37
I00
sg20
I00
sbsg261
g0
(g276
g2
Ntp373
Rp374
(dp375
g11
I00
sg19
I01
sg20
I00
sg280
g281
sg282
g283
sg284
g283
sbsg46
g285
sbsS'stfilt'
p376
g0
(g253
g2
Ntp377
Rp378
(dp379
g38
(lp380
S'selection'
p381
aS'vetoLeptons'
p382
aS'bTagger'
p383
aS'leptonFlavors'
p384
aS'met'
p385
ag258
aS'jets'
p386
aS'bTagCut'
p387
ag354
asg11
I00
sg381
g0
(g164
g2
Ntp388
Rp389
(dp390
g11
I00
sg19
I01
sg37
S'TOP-12-011'
p391
sg20
I00
sbsg20
I01
sg382
g0
(g276
g2
Ntp392
Rp393
(dp394
g11
I00
sg19
I01
sg20
I00
sg280
g353
sg282
g283
sg284
g382
sbsg383
g0
(g164
g2
Ntp395
Rp396
(dp397
g11
I00
sg19
I01
sg37
S'combinedSecondaryVertexMVABJetTags'
p398
sg20
I00
sbsg258
g0
(g33
g2
Ntp399
Rp400
(dp401
g11
I00
sg19
I01
sg37
I00
sg20
I00
sbsg385
g0
(g276
g2
Ntp402
Rp403
(dp404
g11
I00
sg19
I01
sg20
I00
sg280
g334
sg282
g283
sg284
g283
sbsg40
I12
sg272
g376
sg69
S'/home/liis/SingleTop/CMSSW_5_3_5/python/AnalysisCode/SingleTopFilter/singletopfilter_cfi.py'
p405
sg384
g0
(cFWCore.ParameterSet.Types
vint32
p406
g14
(lp407
I11
atp408
Rp409
(dp410
g11
I00
sg19
I01
sg20
I00
sbsg386
g0
(g276
g2
Ntp411
Rp412
(dp413
g11
I00
sg19
I01
sg20
I00
sg280
S'selectedPatJets'
p414
sg282
g283
sg284
g283
sbsg387
g0
(cFWCore.ParameterSet.Types
double
p415
g2
Ntp416
Rp417
(dp418
g11
I00
sg19
I01
sg37
F0.67900000000000005
sg20
I00
sbsg46
S'SingleTopFilter'
p419
sg354
g0
(g276
g2
Ntp420
Rp421
(dp422
g11
I00
sg19
I01
sg20
I00
sg280
g353
sg282
g283
sg284
g354
sbsbsS'demo'
p423
g0
(cFWCore.ParameterSet.Modules
EDAnalyzer
p424
g2
Ntp425
Rp426
(dp427
g38
(lp428
sg11
I00
sg20
I00
sg40
I130
sg69
S'../singletopoptimization_cfg.py'
p429
sg272
g423
sg46
S'SingleTopOptimization'
p430
sbsS'_Process__services'
p431
(dp432
g6
g9
sS'TFileService'
p433
g0
(g7
g2
Ntp434
Rp435
(dp436
g38
(lp437
S'fileName'
p438
asg11
I00
sg20
I00
sg40
I10
sg69
g70
sg438
g0
(g164
g2
Ntp439
Rp440
(dp441
g11
I00
sg19
I01
sg37
S'optHistograms.root'
p442
sg20
I00
sbsg46
g433
sbssS'photonCounter'
p443
g0
(g253
g2
Ntp444
Rp445
(dp446
g38
(lp447
S'src'
p448
aS'minNumber'
p449
asg11
I00
sg20
I00
sg449
g0
(cFWCore.ParameterSet.Types
uint32
p450
g2
Ntp451
Rp452
(dp453
g11
I00
sg19
I01
sg37
I1
sg20
I00
sbsg448
g0
(g276
g2
Ntp454
Rp455
(dp456
g11
I00
sg19
I01
sg20
I00
sg280
g345
sg282
g283
sg284
g283
sbsg69
g429
sg40
I122
sg272
g443
sg46
S'CandViewCountFilter'
p457
sbsS'_Process__source'
p458
g0
(cFWCore.ParameterSet.Modules
Source
p459
g2
Ntp460
Rp461
(dp462
g38
(lp463
S'fileNames'
p464
aS'skipEvents'
p465
asg11
I00
sg20
I01
sg40
I175
sg69
g70
sg465
g0
(g450
g2
Ntp466
Rp467
(dp468
g11
I00
sg19
I00
sg37
I0
sg20
I00
sbsg464
g0
(g13
g14
(lp469
S'file:/hdfs/cms/store/user/mario/QCD_Pt_170_250_BCtoE_TuneZ2star_8TeV_pythia6/Summer12-stop-step1-synced/4abb869c2c9729b82d5a6bb08525e8d2/tuple_100_1_W6c.root'
p470
atp471
Rp472
(dp473
g11
I00
sg19
I00
sg20
I00
sg21
I1
sbsg46
S'PoolSource'
p474
sbsS'printEventContent'
p475
g0
(g424
g2
Ntp476
Rp477
(dp478
g38
(lp479
sg11
I00
sg20
I00
sg40
I132
sg69
g429
sg272
g475
sg46
S'EventContentAnalyzer'
p480
sbsS'trigEleAll'
p481
g0
(g253
g2
Ntp482
Rp483
(dp484
g38
(lp485
g258
ag259
ag260
ag261
asg11
I00
sg20
I00
sg259
g0
(g13
g14
(lp486
tp487
Rp488
(dp489
g11
I00
sg19
I01
sg20
I00
sg21
I1
sbsg69
g266
sg260
g0
(g13
g14
(lp490
g268
ag296
atp491
Rp492
(dp493
g11
I00
sg19
I01
sg20
I00
sg21
I1
sbsg272
g481
sg40
I28
sg258
g0
(g33
g2
Ntp494
Rp495
(dp496
g11
I00
sg19
I01
sg37
I00
sg20
I00
sbsg261
g0
(g276
g2
Ntp497
Rp498
(dp499
g11
I00
sg19
I01
sg20
I00
sg280
g281
sg282
g283
sg284
g283
sbsg46
g285
sbsg335
g322
sg308
g311
sg414
g0
(g253
g2
Ntp500
Rp501
(dp502
g38
(lp503
g448
aS'cut'
p504
asg11
I00
sg504
g0
(g164
g2
Ntp505
Rp506
(dp507
g11
I00
sg19
I01
sg37
S'userFloat("smearPt") > 40'
p508
sg20
I01
sbsg20
I01
sg448
g0
(g276
g2
Ntp509
Rp510
(dp511
g11
I00
sg19
I01
sg20
I00
sg280
S'smearedJets'
p512
sg282
g283
sg284
g283
sbsg69
S'/home/liis/SingleTop/CMSSW_5_3_5/python/PhysicsTools/PatAlgos/selectionLayer1/jetSelector_cfi.py'
p513
sg40
I9
sg272
g414
sg46
S'PATJetSelector'
p514
sbsS'_Process__psets'
p515
(dp516
S'maxEvents'
p517
g0
(g28
g2
Ntp518
Rp519
(dp520
g11
I00
sg19
I00
sg20
I01
sg38
(lp521
S'input'
p522
asg272
g517
sg522
g0
(g103
g2
Ntp523
Rp524
(dp525
g11
I00
sg19
I00
sg37
I1
sg20
I00
sbsbssg433
g435
sS'_Process__essources'
p526
(dp527
sg474
g461
sg517
g519
sS'source'
p528
g461
sS'_Process__vpsets'
p529
(dp530
sS'_Process__name'
p531
S'Analysis'
p532
sS'trig'
p533
g0
(g253
g2
Ntp534
Rp535
(dp536
g38
(lp537
g258
ag259
ag260
ag261
asg11
I00
sg20
I00
sg259
g0
(g13
g14
(lp538
tp539
Rp540
(dp541
g11
I00
sg19
I01
sg20
I00
sg21
I1
sbsg69
g266
sg260
g0
(g13
g14
(lp542
g268
ag296
ag366
aS'HLT_IsoMu17_eta2p1_CentralPFNoPUJet30_BTagIPIter_v'
p543
atp544
Rp545
(dp546
g11
I00
sg19
I01
sg20
I00
sg21
I1
sbsg272
g533
sg40
I54
sg258
g0
(g33
g2
Ntp547
Rp548
(dp549
g11
I00
sg19
I01
sg37
I00
sg20
I00
sbsg261
g0
(g276
g2
Ntp550
Rp551
(dp552
g11
I00
sg19
I01
sg20
I00
sg280
g281
sg282
g283
sg284
g283
sbsg46
g285
sbsS'_cloneToObjectDict'
p553
(dp554
I58382160
g0
(cFWCore.ParameterSet.SequenceTypes
Path
p555
g2
Ntp556
Rp557
(dp558
g11
I00
sg313
g0
(g314
g2
Ntp559
Rp560
(dp561
g318
(lp562
g0
(g320
g2
Ntp563
Rp564
(dp565
g38
(lp566
g258
aS'inLabel'
p567
aS'etaBins'
p568
aS'factors'
p569
asg11
I00
sg20
I01
sg569
g0
(cFWCore.ParameterSet.Types
vdouble
p570
g14
(lp571
F1.052
aF1.0569999999999999
aF1.0960000000000001
aF1.1339999999999999
aF1.288
atp572
Rp573
(dp574
g11
I00
sg19
I01
sg20
I00
sbsg69
S'/home/liis/SingleTop/CMSSW_5_3_5/python/AnalysisCode/SmearedJetProducer/smearedjetproducer_cfi.py'
p575
sg568
g0
(g570
g14
(lp576
F0.5
aF1.1000000000000001
aF1.7
aF2.2999999999999998
aF5.0
atp577
Rp578
(dp579
g11
I00
sg19
I01
sg20
I00
sbsg272
g512
sg40
I8
sg258
g0
(g33
g2
Ntp580
Rp581
(dp582
g11
I00
sg19
I01
sg37
I00
sg20
I00
sbsg567
g0
(g276
g2
Ntp583
Rp584
(dp585
g11
I00
sg19
I01
sg20
I00
sg280
S'goodJets'
p586
sg282
g283
sg284
g283
sbsg46
S'SmearedJetProducer'
p587
sbag501
ag0
(g253
g2
Ntp588
Rp589
(dp590
g38
(lp591
g448
ag504
asg11
I00
sg504
g0
(g164
g2
Ntp592
Rp593
(dp594
g11
I00
sg19
I01
sg37
S'bDiscriminator("combinedSecondaryVertexMVABJetTags") < 0.679 & userFloat("RMS") < 0.025'
p595
sg20
I01
sbsg20
I01
sg448
g0
(g276
g2
Ntp596
Rp597
(dp598
g11
I00
sg19
I01
sg20
I00
sg280
g414
sg282
g283
sg284
g283
sbsg69
g429
sg40
I112
sg272
g349
sg46
g514
sbag0
(g253
g2
Ntp599
Rp600
(dp601
g38
(lp602
g448
ag504
asg11
I00
sg504
g0
(g164
g2
Ntp603
Rp604
(dp605
g11
I00
sg19
I01
sg37
S'bDiscriminator("combinedSecondaryVertexMVABJetTags") > 0.679'
p606
sg20
I01
sbsg20
I01
sg448
g0
(g276
g2
Ntp607
Rp608
(dp609
g11
I00
sg19
I01
sg20
I00
sg280
g414
sg284
g283
sg282
g283
sbsg69
g429
sg40
I116
sg272
g345
sg46
g514
sbag0
(g320
g2
Ntp610
Rp611
(dp612
g38
(lp613
S'goodMuLab'
p614
aS'goodElRelIso'
p615
aS'vetoElLab'
p616
aS'goodElLab'
p617
aS'vetoMuLab'
p618
aS'pvLab'
p619
ag258
aS'goodElPtMax'
p620
aS'goodElMvaEE'
p621
aS'goodElMvaEB'
p622
asg11
I00
sg621
g0
(g415
g2
Ntp623
Rp624
(dp625
g11
I00
sg19
I01
sg37
F-0.10000000000000001
sg20
I00
sbsg20
I01
sg40
I13
sg69
S'/home/liis/SingleTop/CMSSW_5_3_5/python/AnalysisCode/LeptonsProducer/leptonsproducer_cfi.py'
p626
sg615
g0
(g415
g2
Ntp627
Rp628
(dp629
g11
I00
sg19
I01
sg37
I1
sg20
I00
sbsg616
g0
(g276
g2
Ntp630
Rp631
(dp632
g11
I00
sg19
I01
sg20
I00
sg280
S'vetoElectrons'
p633
sg282
g283
sg284
g283
sbsg617
g0
(g276
g2
Ntp634
Rp635
(dp636
g11
I00
sg19
I01
sg20
I00
sg280
S'goodElectrons'
p637
sg282
g283
sg284
g283
sbsg272
g353
sg618
g0
(g276
g2
Ntp638
Rp639
(dp640
g11
I00
sg19
I01
sg20
I00
sg280
S'vetoMuons'
p641
sg282
g283
sg284
g283
sbsg619
g0
(g276
g2
Ntp642
Rp643
(dp644
g11
I00
sg19
I01
sg20
I00
sg280
S'goodOfflinePrimaryVertices'
p645
sg282
g283
sg284
g283
sbsg258
g0
(g33
g2
Ntp646
Rp647
(dp648
g11
I00
sg19
I01
sg37
I00
sg20
I00
sbsg620
g0
(g415
g2
Ntp649
Rp650
(dp651
g11
I00
sg19
I01
sg37
I100
sg20
I00
sbsg614
g0
(g276
g2
Ntp652
Rp653
(dp654
g11
I00
sg19
I01
sg20
I00
sg280
S'goodMuons'
p655
sg282
g283
sg284
g283
sbsg622
g0
(g415
g2
Ntp656
Rp657
(dp658
g11
I00
sg19
I01
sg37
F-0.10000000000000001
sg20
I00
sbsg46
S'LeptonsProducer'
p659
sbag378
ag311
ag426
asbsg20
I00
sg272
S'p'
p660
sbsI58306768
g535
sI56238032
g255
sI58307152
g564
sI56237072
g0
(g253
g2
Ntp661
Rp662
(dp663
g38
(lp664
g258
ag259
ag260
ag261
asg11
I00
sg20
I00
sg259
g0
(g13
g14
(lp665
tp666
Rp667
(dp668
g11
I00
sg19
I01
sg20
I00
sg21
I1
sbsg69
g266
sg260
g0
(g13
g14
(lp669
g366
ag543
atp670
Rp671
(dp672
g11
I00
sg19
I01
sg20
I00
sg21
I1
sbsg272
S'trigMuAll'
p673
sg40
I7
sg258
g0
(g33
g2
Ntp674
Rp675
(dp676
g11
I00
sg19
I01
sg37
I00
sg20
I00
sbsg261
g0
(g276
g2
Ntp677
Rp678
(dp679
g11
I00
sg19
I01
sg20
I00
sg280
g281
sg282
g283
sg284
g283
sbsg46
g285
sbsI58309200
g600
sI58381072
g445
sI58308624
g378
sI56237328
g0
(g253
g2
Ntp680
Rp681
(dp682
g38
(lp683
g258
ag259
ag260
ag261
asg11
I00
sg20
I00
sg259
g0
(g13
g14
(lp684
tp685
Rp686
(dp687
g11
I00
sg19
I01
sg20
I00
sg21
I1
sbsg69
g266
sg260
g0
(g13
g14
(lp688
g543
atp689
Rp690
(dp691
g11
I00
sg19
I01
sg20
I00
sg21
I1
sbsg272
S'trigMuBtag'
p692
sg40
I14
sg258
g0
(g33
g2
Ntp693
Rp694
(dp695
g11
I00
sg19
I01
sg37
I00
sg20
I00
sbsg261
g0
(g276
g2
Ntp696
Rp697
(dp698
g11
I00
sg19
I01
sg20
I00
sg280
g281
sg282
g283
sg284
g283
sbsg46
g285
sbsI56236688
g519
sI58307984
g611
sI58309072
g501
sI56237520
g358
sI58308880
g589
sI58381904
g311
sI56237648
g483
sI58381968
g477
sI58381776
g426
sI58381648
g322
sI56237840
g288
ssg692
g681
sg660
g557
sg349
g589
sS'_Process__esprefers'
p699
(dp700
sg345
g600
sS'_Process__isStrict'
p701
I00
sg353
g611
sS'_Process__partialschedules'
p702
(dp703
sS'_Process__outputmodules'
p704
(dp705
sS'_Process__analyzers'
p706
(dp707
g423
g426
sg475
g477
ssS'_Process__InExtendCall'
p708
I00
sS'_Process__producers'
p709
(dp710
g335
g322
sg512
g564
sg353
g611
ssS'_Process__filters'
p711
(dp712
g252
g255
sg376
g378
sg356
g358
sg414
g501
sg673
g662
sg533
g535
sg286
g288
sg692
g681
sg349
g589
sg345
g600
sg443
g445
sg481
g483
ssS'_Process__looper'
p713
Nsg512
g564
sS'_Process__endpaths'
p714
g0
(cFWCore.ParameterSet.DictTypes
SortedKeysDict
p715
c__builtin__
dict
p716
(dp717
tp718
Rp719
(dp720
S'list'
p721
(lp722
sbsS'_Process__esproducers'
p723
(dp724
sg673
g662
sS'_Process__paths'
p725
g0
(g715
g716
(dp726
g660
g557
stp727
Rp728
(dp729
g721
(lp730
g660
asbsS'_Process__subProcess'
p731
NsS'_Process__schedule'
p732
Nsb.